; Function Attrs: nounwind uwtable
define dso_local ptr @sdsgrowzero(ptr noundef %s, i64 noundef %len) local_unnamed_addr #0 {
entry:
  %arrayidx.i = getelementptr inbounds i8, ptr %s, i64 -1
  %0 = load i8, ptr %arrayidx.i, align 1
  %conv.i = zext i8 %0 to i32
  %and.i = and i32 %conv.i, 7
  switch i32 %and.i, label %sdslen.exit [
    i32 0, label %sw.bb.i
    i32 1, label %sw.bb3.i
    i32 2, label %sw.bb5.i
    i32 3, label %sw.bb9.i
    i32 4, label %sw.bb13.i
  ]

sw.bb.i:                                          ; preds = %entry
  %shr.i = lshr i32 %conv.i, 3
  %conv2.i = zext nneg i32 %shr.i to i64
  br label %sdslen.exit

sw.bb3.i:                                         ; preds = %entry
  %add.ptr.i = getelementptr inbounds i8, ptr %s, i64 -3
  %1 = load i8, ptr %add.ptr.i, align 1
  %conv4.i = zext i8 %1 to i64
  br label %sdslen.exit

sw.bb5.i:                                         ; preds = %entry
  %add.ptr6.i = getelementptr inbounds i8, ptr %s, i64 -5
  %2 = load i16, ptr %add.ptr6.i, align 1
  %conv8.i = zext i16 %2 to i64
  br label %sdslen.exit

sw.bb9.i:                                         ; preds = %entry
  %add.ptr10.i = getelementptr inbounds i8, ptr %s, i64 -9
  %3 = load i32, ptr %add.ptr10.i, align 1
  %conv12.i = zext i32 %3 to i64
  br label %sdslen.exit

sw.bb13.i:                                        ; preds = %entry
  %add.ptr14.i = getelementptr inbounds i8, ptr %s, i64 -17
  %4 = load i64, ptr %add.ptr14.i, align 1
  br label %sdslen.exit

sdslen.exit:                                      ; preds = %entry, %sw.bb.i, %sw.bb3.i, %sw.bb5.i, %sw.bb9.i, %sw.bb13.i
  %retval.0.i = phi i64 [ %4, %sw.bb13.i ], [ %conv12.i, %sw.bb9.i ], [ %conv8.i, %sw.bb5.i ], [ %conv4.i, %sw.bb3.i ], [ %conv2.i, %sw.bb.i ], [ 0, %entry ]
  %cmp.not = icmp ult i64 %retval.0.i, %len
  br i1 %cmp.not, label %if.end, label %return

if.end:                                           ; preds = %sdslen.exit
  %sub = sub i64 %len, %retval.0.i
  %call.i = tail call ptr @_sdsMakeRoomFor(ptr noundef nonnull %s, i64 noundef %sub, i32 noundef 1)
  %cmp2 = icmp eq ptr %call.i, null
  br i1 %cmp2, label %return, label %if.end4

if.end4:                                          ; preds = %if.end
  %add.ptr = getelementptr inbounds i8, ptr %call.i, i64 %retval.0.i
  %add = add i64 %sub, 1
  tail call void @llvm.memset.p0.i64(ptr nonnull align 1 %add.ptr, i8 0, i64 %add, i1 false)
  %arrayidx.i13 = getelementptr inbounds i8, ptr %call.i, i64 -1
  %5 = load i8, ptr %arrayidx.i13, align 1
  %6 = and i8 %5, 7
  switch i8 %6, label %return [
    i8 0, label %sw.bb.i18
    i8 1, label %sw.bb2.i
    i8 2, label %sw.bb5.i17
    i8 3, label %sw.bb9.i16
    i8 4, label %sw.bb13.i14
  ]

sw.bb.i18:                                        ; preds = %if.end4
  %newlen.tr.i = trunc i64 %len to i8
  %conv1.i = shl i8 %newlen.tr.i, 3
  store i8 %conv1.i, ptr %arrayidx.i13, align 1
  br label %return

sw.bb2.i:                                         ; preds = %if.end4
  %conv3.i = trunc i64 %len to i8
  %add.ptr4.i = getelementptr inbounds i8, ptr %call.i, i64 -3
  store i8 %conv3.i, ptr %add.ptr4.i, align 1
  br label %return

sw.bb5.i17:                                       ; preds = %if.end4
  %conv6.i = trunc i64 %len to i16
  %add.ptr7.i = getelementptr inbounds i8, ptr %call.i, i64 -5
  store i16 %conv6.i, ptr %add.ptr7.i, align 1
  br label %return

sw.bb9.i16:                                       ; preds = %if.end4
  %conv10.i = trunc i64 %len to i32
  %add.ptr11.i = getelementptr inbounds i8, ptr %call.i, i64 -9
  store i32 %conv10.i, ptr %add.ptr11.i, align 1
  br label %return

sw.bb13.i14:                                      ; preds = %if.end4
  %add.ptr14.i15 = getelementptr inbounds i8, ptr %call.i, i64 -17
  store i64 %len, ptr %add.ptr14.i15, align 1
  br label %return

return:                                           ; preds = %sw.bb13.i14, %sw.bb9.i16, %sw.bb5.i17, %sw.bb2.i, %sw.bb.i18, %if.end4, %if.end, %sdslen.exit
  %retval.0 = phi ptr [ %s, %sdslen.exit ], [ null, %if.end ], [ %call.i, %if.end4 ], [ %call.i, %sw.bb.i18 ], [ %call.i, %sw.bb2.i ], [ %call.i, %sw.bb5.i17 ], [ %call.i, %sw.bb9.i16 ], [ %call.i, %sw.bb13.i14 ]
  ret ptr %retval.0
}